target datalayout = "e-m:e-p270:32:32-p271:32:32-p272:64:64-i64:64-i128:128-f80:128-n8:16:32:64-S128"
target triple = "x86_64-pc-linux-gnu"

%struct.pmix_class_t = type { ptr, ptr, ptr, ptr, i32, i32, ptr, ptr, i64 }
%union.pthread_mutex_t = type { %struct.__pthread_mutex_s }
%struct.__pthread_mutex_s = type { i32, i32, i32, i32, i32, i16, i16, %struct.__pthread_internal_list }
%struct.__pthread_internal_list = type { ptr, ptr }
%struct.pmix_tma = type { ptr, ptr, ptr, ptr, ptr, ptr, ptr, ptr }
%struct.pmix_list_t = type { %struct.pmix_object_t, %struct.pmix_list_item_t, i64 }
%struct.pmix_object_t = type { %union.pthread_mutex_t, ptr, i32, %struct.pmix_tma }
%struct.pmix_list_item_t = type { %struct.pmix_object_t, ptr, ptr, i32 }

@.str.19 = private unnamed_addr constant [21 x i8] c"pthread_mutex_lock()\00", align 1

; Function Attrs: inlinehint nounwind uwtable
define internal void @pmix_tma_free(ptr noundef %0, ptr noundef %1) #3 {
  %3 = alloca ptr, align 8
  %4 = alloca ptr, align 8
  store ptr %0, ptr %3, align 8, !tbaa !49
  store ptr %1, ptr %4, align 8, !tbaa !31
  %5 = load ptr, ptr %3, align 8, !tbaa !49
  %6 = icmp ne ptr null, %5
  br i1 %6, label %7, label %13

7:                                                ; preds = %2
  %8 = load ptr, ptr %3, align 8, !tbaa !49
  %9 = getelementptr inbounds nuw %struct.pmix_tma, ptr %8, i32 0, i32 5
  %10 = load ptr, ptr %9, align 8, !tbaa !68
  %11 = load ptr, ptr %3, align 8, !tbaa !49
  %12 = load ptr, ptr %4, align 8, !tbaa !31
  call void %10(ptr noundef %11, ptr noundef %12)
  br label %15

13:                                               ; preds = %2
  %14 = load ptr, ptr %4, align 8, !tbaa !31
  call void @free(ptr noundef %14) #11
  br label %15

15:                                               ; preds = %13, %7
  ret void
}

; Function Attrs: inlinehint nounwind uwtable
define internal void @pmix_obj_run_destructors(ptr noundef %0) #3 {
  %2 = alloca ptr, align 8
  %3 = alloca ptr, align 8
  store ptr %0, ptr %2, align 8, !tbaa !20
  call void @llvm.lifetime.start.p0(i64 8, ptr %3) #11
  %4 = load ptr, ptr %2, align 8, !tbaa !20
  %5 = getelementptr inbounds nuw %struct.pmix_object_t, ptr %4, i32 0, i32 1
  %6 = load ptr, ptr %5, align 8, !tbaa !14
  %7 = getelementptr inbounds nuw %struct.pmix_class_t, ptr %6, i32 0, i32 7
  %8 = load ptr, ptr %7, align 8, !tbaa !66
  store ptr %8, ptr %3, align 8, !tbaa !31
  br label %9

9:                                                ; preds = %13, %1
  %10 = load ptr, ptr %3, align 8, !tbaa !31
  %11 = load ptr, ptr %10, align 8, !tbaa !31
  %12 = icmp ne ptr null, %11
  br i1 %12, label %13, label %19

13:                                               ; preds = %9
  %14 = load ptr, ptr %3, align 8, !tbaa !31
  %15 = load ptr, ptr %14, align 8, !tbaa !31
  %16 = load ptr, ptr %2, align 8, !tbaa !20
  call void %15(ptr noundef %16)
  %17 = load ptr, ptr %3, align 8, !tbaa !31
  %18 = getelementptr inbounds nuw ptr, ptr %17, i32 1
  store ptr %18, ptr %3, align 8, !tbaa !31
  br label %9, !llvm.loop !67

19:                                               ; preds = %9
  call void @llvm.lifetime.end.p0(i64 8, ptr %3) #11
  ret void
}

; Function Attrs: alwaysinline nounwind uwtable
define internal i32 @pmix_obj_update(ptr noundef %0, i32 noundef %1) #8 {
  %3 = alloca ptr, align 8
  %4 = alloca i32, align 4
  %5 = alloca i32, align 4
  store ptr %0, ptr %3, align 8, !tbaa !20
  store i32 %1, ptr %4, align 4, !tbaa !3
  call void @llvm.lifetime.start.p0(i64 4, ptr %5) #11
  %6 = load ptr, ptr %3, align 8, !tbaa !20
  %7 = getelementptr inbounds nuw %struct.pmix_object_t, ptr %6, i32 0, i32 0
  %8 = call i32 @pthread_mutex_lock(ptr noundef %7) #11
  store i32 %8, ptr %5, align 4, !tbaa !3
  %9 = load i32, ptr %5, align 4, !tbaa !3
  %10 = icmp eq i32 %9, 35
  br i1 %10, label %11, label %14

11:                                               ; preds = %2
  %12 = load i32, ptr %5, align 4, !tbaa !3
  %13 = call ptr @__errno_location() #13
  store i32 %12, ptr %13, align 4, !tbaa !3
  call void @perror(ptr noundef @.str.19)
  call void @abort() #14
  unreachable

14:                                               ; preds = %2
  %15 = load i32, ptr %4, align 4, !tbaa !3
  %16 = load ptr, ptr %3, align 8, !tbaa !20
  %17 = getelementptr inbounds nuw %struct.pmix_object_t, ptr %16, i32 0, i32 2
  %18 = load i32, ptr %17, align 8, !tbaa !17
  %19 = add nsw i32 %18, %15
  store i32 %19, ptr %17, align 8, !tbaa !17
  store i32 %19, ptr %5, align 4, !tbaa !3
  %20 = load ptr, ptr %3, align 8, !tbaa !20
  %21 = getelementptr inbounds nuw %struct.pmix_object_t, ptr %20, i32 0, i32 0
  %22 = call i32 @pthread_mutex_unlock(ptr noundef %21) #11
  %23 = load i32, ptr %5, align 4, !tbaa !3
  call void @llvm.lifetime.end.p0(i64 4, ptr %5) #11
  ret i32 %23
}

; Function Attrs: inlinehint nounwind uwtable
define internal ptr @pmix_list_remove_first(ptr noundef %0) #3 {
  %2 = alloca ptr, align 8
  %3 = alloca ptr, align 8
  %4 = alloca ptr, align 8
  %5 = alloca i32, align 4
  store ptr %0, ptr %3, align 8, !tbaa !59
  call void @llvm.lifetime.start.p0(i64 8, ptr %4) #11
  %6 = load ptr, ptr %3, align 8, !tbaa !59
  %7 = getelementptr inbounds nuw %struct.pmix_list_t, ptr %6, i32 0, i32 2
  %8 = load volatile i64, ptr %7, align 8, !tbaa !62
  %9 = icmp eq i64 0, %8
  br i1 %9, label %10, label %11

10:                                               ; preds = %1
  store ptr null, ptr %2, align 8
  store i32 1, ptr %5, align 4
  br label %34

11:                                               ; preds = %1
  %12 = load ptr, ptr %3, align 8, !tbaa !59
  %13 = getelementptr inbounds nuw %struct.pmix_list_t, ptr %12, i32 0, i32 2
  %14 = load volatile i64, ptr %13, align 8, !tbaa !62
  %15 = add i64 %14, -1
  store volatile i64 %15, ptr %13, align 8, !tbaa !62
  %16 = load ptr, ptr %3, align 8, !tbaa !59
  %17 = getelementptr inbounds nuw %struct.pmix_list_t, ptr %16, i32 0, i32 1
  %18 = getelementptr inbounds nuw %struct.pmix_list_item_t, ptr %17, i32 0, i32 1
  %19 = load ptr, ptr %18, align 8, !tbaa !42
  store ptr %19, ptr %4, align 8, !tbaa !18
  %20 = load ptr, ptr %4, align 8, !tbaa !18
  %21 = getelementptr inbounds nuw %struct.pmix_list_item_t, ptr %20, i32 0, i32 2
  %22 = load volatile ptr, ptr %21, align 8, !tbaa !61
  %23 = load ptr, ptr %4, align 8, !tbaa !18
  %24 = getelementptr inbounds nuw %struct.pmix_list_item_t, ptr %23, i32 0, i32 1
  %25 = load volatile ptr, ptr %24, align 8, !tbaa !44
  %26 = getelementptr inbounds nuw %struct.pmix_list_item_t, ptr %25, i32 0, i32 2
  store volatile ptr %22, ptr %26, align 8, !tbaa !61
  %27 = load ptr, ptr %4, align 8, !tbaa !18
  %28 = getelementptr inbounds nuw %struct.pmix_list_item_t, ptr %27, i32 0, i32 1
  %29 = load volatile ptr, ptr %28, align 8, !tbaa !44
  %30 = load ptr, ptr %3, align 8, !tbaa !59
  %31 = getelementptr inbounds nuw %struct.pmix_list_t, ptr %30, i32 0, i32 1
  %32 = getelementptr inbounds nuw %struct.pmix_list_item_t, ptr %31, i32 0, i32 1
  store ptr %29, ptr %32, align 8, !tbaa !42
  %33 = load ptr, ptr %4, align 8, !tbaa !18
  store ptr %33, ptr %2, align 8
  store i32 1, ptr %5, align 4
  br label %34

34:                                               ; preds = %11, %10
  call void @llvm.lifetime.end.p0(i64 8, ptr %4) #11
  %35 = load ptr, ptr %2, align 8
  ret ptr %35
}

; Function Attrs: nounwind uwtable
define internal i32 @prte_ess_base_close() #0 {
  %1 = alloca ptr, align 8
  %2 = alloca ptr, align 8
  br label %3

3:                                                ; preds = %0
  call void @llvm.lifetime.start.p0(i64 8, ptr %1) #11
  br label %4

4:                                                ; preds = %29, %3
  %5 = call ptr @pmix_list_remove_first(ptr noundef @prte_ess_base_signals)
  store ptr %5, ptr %1, align 8, !tbaa !18
  %6 = icmp ne ptr null, %5
  br i1 %6, label %7, label %30

7:                                                ; preds = %4
  br label %8

8:                                                ; preds = %7
  call void @llvm.lifetime.start.p0(i64 8, ptr %2) #11
  %9 = load ptr, ptr %1, align 8, !tbaa !18
  store ptr %9, ptr %2, align 8, !tbaa !20
  %10 = load ptr, ptr %2, align 8, !tbaa !20
  %11 = call i32 @pmix_obj_update(ptr noundef %10, i32 noundef -1)
  %12 = icmp eq i32 0, %11
  br i1 %12, label %13, label %27

13:                                               ; preds = %8
  %14 = load ptr, ptr %2, align 8, !tbaa !20
  call void @pmix_obj_run_destructors(ptr noundef %14)
  %15 = load ptr, ptr %2, align 8, !tbaa !20
  %16 = getelementptr inbounds nuw %struct.pmix_object_t, ptr %15, i32 0, i32 3
  %17 = getelementptr inbounds nuw %struct.pmix_tma, ptr %16, i32 0, i32 5
  %18 = load ptr, ptr %17, align 8, !tbaa !22
  %19 = icmp ne ptr null, %18
  br i1 %19, label %20, label %24

20:                                               ; preds = %13
  %21 = load ptr, ptr %2, align 8, !tbaa !20
  %22 = getelementptr inbounds nuw %struct.pmix_object_t, ptr %21, i32 0, i32 3
  %23 = load ptr, ptr %1, align 8, !tbaa !18
  call void @pmix_tma_free(ptr noundef %22, ptr noundef %23)
  br label %26

24:                                               ; preds = %13
  %25 = load ptr, ptr %1, align 8, !tbaa !18
  call void @free(ptr noundef %25) #11
  br label %26

26:                                               ; preds = %24, %20
  store ptr null, ptr %1, align 8, !tbaa !18
  br label %27

27:                                               ; preds = %26, %8
  call void @llvm.lifetime.end.p0(i64 8, ptr %2) #11
  br label %28

28:                                               ; preds = %27
  br label %29

29:                                               ; preds = %28
  br label %4, !llvm.loop !23

30:                                               ; preds = %4
  br label %31

31:                                               ; preds = %30
  call void @pmix_obj_run_destructors(ptr noundef @prte_ess_base_signals)
  br label %32

32:                                               ; preds = %31
  br label %33

33:                                               ; preds = %32
  call void @llvm.lifetime.end.p0(i64 8, ptr %1) #11
  br label %34

34:                                               ; preds = %33
  %35 = call i32 @pmix_mca_base_framework_components_close(ptr noundef @prte_ess_base_framework, ptr noundef null)
  ret i32 %35
}