; Function Attrs: nounwind uwtable
define internal i32 @prte_ess_base_close() #0 {
  %1 = load volatile i64, ptr getelementptr inbounds nuw (i8, ptr @prte_ess_base_signals, i64 264), align 8, !tbaa !22
  %2 = icmp eq i64 %1, 0
  br i1 %2, label %._crit_edge, label %.lr.ph

.lr.ph:                                           ; preds = %0, %35
  %3 = load volatile i64, ptr getelementptr inbounds nuw (i8, ptr @prte_ess_base_signals, i64 264), align 8, !tbaa !22
  %4 = add i64 %3, -1
  store volatile i64 %4, ptr getelementptr inbounds nuw (i8, ptr @prte_ess_base_signals, i64 264), align 8, !tbaa !22
  %5 = load ptr, ptr getelementptr inbounds nuw (i8, ptr @prte_ess_base_signals, i64 240), align 8, !tbaa !26
  %6 = getelementptr inbounds nuw i8, ptr %5, i64 128
  %7 = load volatile ptr, ptr %6, align 8, !tbaa !27
  %8 = getelementptr inbounds nuw i8, ptr %5, i64 120
  %9 = load volatile ptr, ptr %8, align 8, !tbaa !28
  %10 = getelementptr inbounds nuw i8, ptr %9, i64 128
  store volatile ptr %7, ptr %10, align 8, !tbaa !27
  %11 = load volatile ptr, ptr %8, align 8, !tbaa !28
  store ptr %11, ptr getelementptr inbounds nuw (i8, ptr @prte_ess_base_signals, i64 240), align 8, !tbaa !26
  %12 = tail call i32 @pthread_mutex_lock(ptr noundef nonnull %5) #16
  %13 = icmp eq i32 %12, 35
  br i1 %13, label %14, label %pmix_obj_update.exit

14:                                               ; preds = %.lr.ph
  %15 = tail call ptr @__errno_location() #17
  store i32 35, ptr %15, align 4, !tbaa !8
  tail call void @perror(ptr noundef nonnull @.str.19) #18
  tail call void @abort() #19
  unreachable

pmix_obj_update.exit:                             ; preds = %.lr.ph
  %16 = getelementptr inbounds nuw i8, ptr %5, i64 48
  %17 = load i32, ptr %16, align 8, !tbaa !17
  %18 = add nsw i32 %17, -1
  store i32 %18, ptr %16, align 8, !tbaa !17
  %19 = tail call i32 @pthread_mutex_unlock(ptr noundef nonnull %5) #16
  %20 = icmp eq i32 %18, 0
  br i1 %20, label %21, label %35

21:                                               ; preds = %pmix_obj_update.exit
  %22 = getelementptr inbounds nuw i8, ptr %5, i64 40
  %23 = load ptr, ptr %22, align 8, !tbaa !14
  %24 = getelementptr inbounds nuw i8, ptr %23, i64 48
  %25 = load ptr, ptr %24, align 8, !tbaa !29
  %26 = load ptr, ptr %25, align 8, !tbaa !19
  %.not6.i = icmp eq ptr %26, null
  br i1 %.not6.i, label %pmix_obj_run_destructors.exit, label %.lr.ph.i

.lr.ph.i:                                         ; preds = %21, %.lr.ph.i
  %27 = phi ptr [ %29, %.lr.ph.i ], [ %26, %21 ]
  %.07.i = phi ptr [ %28, %.lr.ph.i ], [ %25, %21 ]
  tail call void %27(ptr noundef nonnull %5) #16
  %28 = getelementptr inbounds nuw i8, ptr %.07.i, i64 8
  %29 = load ptr, ptr %28, align 8, !tbaa !19
  %.not.i = icmp eq ptr %29, null
  br i1 %.not.i, label %pmix_obj_run_destructors.exit, label %.lr.ph.i, !llvm.loop !30

pmix_obj_run_destructors.exit:                    ; preds = %.lr.ph.i, %21
  %30 = getelementptr inbounds nuw i8, ptr %5, i64 96
  %31 = load ptr, ptr %30, align 8, !tbaa !31
  %.not7 = icmp eq ptr %31, null
  br i1 %.not7, label %34, label %32

32:                                               ; preds = %pmix_obj_run_destructors.exit
  %33 = getelementptr inbounds nuw i8, ptr %5, i64 56
  tail call void %31(ptr noundef nonnull %33, ptr noundef nonnull %5) #16
  br label %35

34:                                               ; preds = %pmix_obj_run_destructors.exit
  tail call void @free(ptr noundef nonnull %5) #16
  br label %35

35:                                               ; preds = %32, %34, %pmix_obj_update.exit
  %36 = load volatile i64, ptr getelementptr inbounds nuw (i8, ptr @prte_ess_base_signals, i64 264), align 8, !tbaa !22
  %37 = icmp eq i64 %36, 0
  br i1 %37, label %._crit_edge, label %.lr.ph, !llvm.loop !32

._crit_edge:                                      ; preds = %35, %0
  %38 = load ptr, ptr getelementptr inbounds nuw (i8, ptr @prte_ess_base_signals, i64 40), align 8, !tbaa !14
  %39 = getelementptr inbounds nuw i8, ptr %38, i64 48
  %40 = load ptr, ptr %39, align 8, !tbaa !29
  %41 = load ptr, ptr %40, align 8, !tbaa !19
  %.not6.i8 = icmp eq ptr %41, null
  br i1 %.not6.i8, label %pmix_obj_run_destructors.exit12, label %.lr.ph.i9

.lr.ph.i9:                                        ; preds = %._crit_edge, %.lr.ph.i9
  %42 = phi ptr [ %44, %.lr.ph.i9 ], [ %41, %._crit_edge ]
  %.07.i10 = phi ptr [ %43, %.lr.ph.i9 ], [ %40, %._crit_edge ]
  tail call void %42(ptr noundef nonnull @prte_ess_base_signals) #16
  %43 = getelementptr inbounds nuw i8, ptr %.07.i10, i64 8
  %44 = load ptr, ptr %43, align 8, !tbaa !19
  %.not.i11 = icmp eq ptr %44, null
  br i1 %.not.i11, label %pmix_obj_run_destructors.exit12, label %.lr.ph.i9, !llvm.loop !30

pmix_obj_run_destructors.exit12:                  ; preds = %.lr.ph.i9, %._crit_edge
  %45 = tail call i32 @pmix_mca_base_framework_components_close(ptr noundef nonnull @prte_ess_base_framework, ptr noundef null) #16
  ret i32 %45
}